target datalayout = "e-m:e-p270:32:32-p271:32:32-p272:64:64-i64:64-i128:128-f80:128-n8:16:32:64-S128"
target triple = "x86_64-pc-linux-gnu"

%struct._X11SDOps = type { %struct._SurfaceDataOps, ptr, ptr, i8, i8, ptr, i64, ptr, ptr, i32, i32, ptr, ptr, i64, i32, i8, i32, i32, i64, %struct.ShmPixmapData }
%struct._SurfaceDataOps = type { ptr, ptr, ptr, ptr, ptr, ptr, ptr }
%struct.ShmPixmapData = type { ptr, i32, i8, i64, i8, i64, i64, i32, i32, i32, i32 }

@awt_display = external global ptr, align 8

; Function Attrs: nounwind uwtable
define void @Java_sun_java2d_x11_X11Renderer_XDrawLine(ptr noundef %0, ptr noundef %1, i64 noundef %2, i64 noundef %3, i32 noundef %4, i32 noundef %5, i32 noundef %6, i32 noundef %7) #0 {
  %9 = alloca ptr, align 8
  %10 = alloca ptr, align 8
  %11 = alloca i64, align 8
  %12 = alloca i64, align 8
  %13 = alloca i32, align 4
  %14 = alloca i32, align 4
  %15 = alloca i32, align 4
  %16 = alloca i32, align 4
  %17 = alloca ptr, align 8
  store ptr %0, ptr %9, align 8
  store ptr %1, ptr %10, align 8
  store i64 %2, ptr %11, align 8
  store i64 %3, ptr %12, align 8
  store i32 %4, ptr %13, align 4
  store i32 %5, ptr %14, align 4
  store i32 %6, ptr %15, align 4
  store i32 %7, ptr %16, align 4
  %18 = load i64, ptr %11, align 8
  %19 = inttoptr i64 %18 to ptr
  store ptr %19, ptr %17, align 8
  %20 = load ptr, ptr %17, align 8
  %21 = icmp eq ptr %20, null
  br i1 %21, label %22, label %23

22:                                               ; preds = %8
  br label %85

23:                                               ; preds = %8
  %24 = load ptr, ptr @awt_display, align 8
  %25 = load ptr, ptr %17, align 8
  %26 = getelementptr inbounds %struct._X11SDOps, ptr %25, i32 0, i32 6
  %27 = load i64, ptr %26, align 8
  %28 = load i64, ptr %12, align 8
  %29 = inttoptr i64 %28 to ptr
  %30 = load i32, ptr %13, align 4
  %31 = icmp sgt i32 %30, 32767
  br i1 %31, label %32, label %33

32:                                               ; preds = %23
  br label %41

33:                                               ; preds = %23
  %34 = load i32, ptr %13, align 4
  %35 = icmp slt i32 %34, -32768
  br i1 %35, label %36, label %37

36:                                               ; preds = %33
  br label %39

37:                                               ; preds = %33
  %38 = load i32, ptr %13, align 4
  br label %39

39:                                               ; preds = %37, %36
  %40 = phi i32 [ -32768, %36 ], [ %38, %37 ]
  br label %41

41:                                               ; preds = %39, %32
  %42 = phi i32 [ 32767, %32 ], [ %40, %39 ]
  %43 = load i32, ptr %14, align 4
  %44 = icmp sgt i32 %43, 32767
  br i1 %44, label %45, label %46

45:                                               ; preds = %41
  br label %54

46:                                               ; preds = %41
  %47 = load i32, ptr %14, align 4
  %48 = icmp slt i32 %47, -32768
  br i1 %48, label %49, label %50

49:                                               ; preds = %46
  br label %52

50:                                               ; preds = %46
  %51 = load i32, ptr %14, align 4
  br label %52

52:                                               ; preds = %50, %49
  %53 = phi i32 [ -32768, %49 ], [ %51, %50 ]
  br label %54

54:                                               ; preds = %52, %45
  %55 = phi i32 [ 32767, %45 ], [ %53, %52 ]
  %56 = load i32, ptr %15, align 4
  %57 = icmp sgt i32 %56, 32767
  br i1 %57, label %58, label %59

58:                                               ; preds = %54
  br label %67

59:                                               ; preds = %54
  %60 = load i32, ptr %15, align 4
  %61 = icmp slt i32 %60, -32768
  br i1 %61, label %62, label %63

62:                                               ; preds = %59
  br label %65

63:                                               ; preds = %59
  %64 = load i32, ptr %15, align 4
  br label %65

65:                                               ; preds = %63, %62
  %66 = phi i32 [ -32768, %62 ], [ %64, %63 ]
  br label %67

67:                                               ; preds = %65, %58
  %68 = phi i32 [ 32767, %58 ], [ %66, %65 ]
  %69 = load i32, ptr %16, align 4
  %70 = icmp sgt i32 %69, 32767
  br i1 %70, label %71, label %72

71:                                               ; preds = %67
  br label %80

72:                                               ; preds = %67
  %73 = load i32, ptr %16, align 4
  %74 = icmp slt i32 %73, -32768
  br i1 %74, label %75, label %76

75:                                               ; preds = %72
  br label %78

76:                                               ; preds = %72
  %77 = load i32, ptr %16, align 4
  br label %78

78:                                               ; preds = %76, %75
  %79 = phi i32 [ -32768, %75 ], [ %77, %76 ]
  br label %80

80:                                               ; preds = %78, %71
  %81 = phi i32 [ 32767, %71 ], [ %79, %78 ]
  %82 = call i32 @XDrawLine(ptr noundef %24, i64 noundef %27, ptr noundef %29, i32 noundef %42, i32 noundef %55, i32 noundef %68, i32 noundef %81)
  %83 = load ptr, ptr %9, align 8
  %84 = load ptr, ptr %17, align 8
  call void @X11SD_DirectRenderNotify(ptr noundef %83, ptr noundef %84)
  br label %85

85:                                               ; preds = %80, %22
  ret void
}