; Function Attrs: nounwind uwtable
define void @Java_sun_java2d_x11_X11Renderer_XDrawLine(ptr noundef %0, ptr nocapture noundef readnone %1, i64 noundef %2, i64 noundef %3, i32 noundef %4, i32 noundef %5, i32 noundef %6, i32 noundef %7) local_unnamed_addr #0 {
  %9 = icmp eq i64 %2, 0
  br i1 %9, label %25, label %10

10:                                               ; preds = %8
  %11 = inttoptr i64 %2 to ptr
  %12 = load ptr, ptr @awt_display, align 8
  %13 = getelementptr inbounds i8, ptr %11, i64 88
  %14 = load i64, ptr %13, align 8
  %15 = inttoptr i64 %3 to ptr
  %16 = tail call i32 @llvm.smax.i32(i32 %4, i32 -32768)
  %17 = tail call i32 @llvm.smin.i32(i32 %16, i32 32767)
  %18 = tail call i32 @llvm.smax.i32(i32 %5, i32 -32768)
  %19 = tail call i32 @llvm.smin.i32(i32 %18, i32 32767)
  %20 = tail call i32 @llvm.smax.i32(i32 %6, i32 -32768)
  %21 = tail call i32 @llvm.smin.i32(i32 %20, i32 32767)
  %22 = tail call i32 @llvm.smax.i32(i32 %7, i32 -32768)
  %23 = tail call i32 @llvm.smin.i32(i32 %22, i32 32767)
  %24 = tail call i32 @XDrawLine(ptr noundef %12, i64 noundef %14, ptr noundef %15, i32 noundef %17, i32 noundef %19, i32 noundef %21, i32 noundef %23) #10
  tail call void @X11SD_DirectRenderNotify(ptr noundef %0, ptr noundef nonnull %11) #10
  br label %25

25:                                               ; preds = %8, %10
  ret void
}